-----BEGIN RSA PRIVATE KEY-----
MIIBPAIBAAJBAN6oAyWX+cZLET+9Pax0AmZWKt6JERq+aqg/k0uzVDpVV3Bj6T2b
r9gNoOqYYWPLtvZ6CPrM4lnkcZtl62T7TmMCAwEAAQJBALRuCj7IrQvXgR7Zx8Sc
LeWoJg03nbjCXcQB4OcTZ0nso1WUd41AkXRA8LRS8KzD64E8dIXT1unOafcCeoRv
bEECIQD18xpJbYOFWNcf2+KR3y+K+wGpNInCiKQ+OdOZRk/PCQIhAOfBPIbVyCd3
PPV0HPYtw3JkhAzaaNrDNR1ulZxNA2ELAiEA3zreAgVXGUHQR4dQ9msnALLgCA66
domE4UGlD3ok19kCIBpKvt4hJLrteRnzmVGIcZLpul1m7dxbpwv2vrxjtE1vAiEA
58Mm/bz5fEbNWUr9Smdkm0pmlbjaYHjUt9/rSRZH0vo=
-----END RSA PRIVATE KEY-----
Certificate:
    Data:
        Version: 3 (0x2)
        Serial Number: 2 (0x2)
        Signature Algorithm: sha1WithRSAEncryption
        Issuer: CN=Pyro Cert Auth, C=NL, ST=SomeState, L=SomeCity, O=pyro.sourceforge.net/emailAddress=certauth@pyro.invalid
        Validity
            Not Before: Feb  1 21:30:26 2005 GMT
            Not After : Feb  1 21:30:26 2006 GMT
        Subject: C=NL, ST=SomeState, O=pyro.sourceforge.net, OU=client, CN=client/emailAddress=client@pyro.invalid
        Subject Public Key Info:
            Public Key Algorithm: rsaEncryption
            RSA Public Key: (512 bit)
                Modulus (512 bit):
                    00:de:a8:03:25:97:f9:c6:4b:11:3f:bd:3d:ac:74:
                    02:66:56:2a:de:89:11:1a:be:6a:a8:3f:93:4b:b3:
                    54:3a:55:57:70:63:e9:3d:9b:af:d8:0d:a0:ea:98:
                    61:63:cb:b6:f6:7a:08:fa:cc:e2:59:e4:71:9b:65:
                    eb:64:fb:4e:63
                Exponent: 65537 (0x10001)
        X509v3 extensions:
            X509v3 Basic Constraints: 
                CA:FALSE
            X509v3 Subject Key Identifier: 
                A6:2C:36:F9:C6:80:AA:61:E0:7C:A8:BA:CA:E2:EF:8B:A7:97:28:C2
            X509v3 Authority Key Identifier: 
                keyid:4E:C5:F3:62:81:13:E2:DB:46:DA:FD:76:45:60:CB:52:7D:3F:EF:2B
                DirName:/CN=Pyro Cert Auth/C=NL/ST=SomeState/L=SomeCity/O=pyro.sourceforge.net/emailAddress=certauth@pyro.invalid
                serial:00

            Netscape CA Revocation Url: 
                https://www.cert.invalid/ca-crl.pem
    Signature Algorithm: sha1WithRSAEncryption
        06:b8:29:7b:9f:fc:88:0c:f1:81:46:d3:8a:eb:aa:ec:84:72:
        82:df:65:0b:75:7e:1b:f0:33:c6:d8:5c:cf:6e:fe:ca:33:2c:
        b5:21:86:55:c8:90:14:42:52:31:0c:7c:2e:4a:7f:7b:53:91:
        20:a4:80:51:9f:92:f3:7d:af:11:c1:38:6e:35:35:38:3f:eb:
        43:79:1f:ed:70:0f:0b:86:4e:a6:a3:3f:4e:a2:60:cb:20:9c:
        bd:b5:2e:dc:75:c1:26:83:9d:d7:0e:36:4c:7d:72:b8:c8:c8:
        3c:9c:18:89:aa:ce:70:03:63:9f:6f:4a:d2:49:69:37:66:c6:
        92:2b:11:8f:31:74:9b:cd:66:cd:46:c0:96:fd:56:b9:a5:21:
        d1:c8:c4:39:0e:da:5a:85:d6:ea:c0:2f:2b:66:9c:94:fa:cc:
        f4:dd:82:63:f1:2a:41:9f:83:2b:57:b7:1e:cb:1b:77:a5:c3:
        61:4a:96:b0:71:29:90:22:be:cf:45:c2:43:3e:c5:2f:51:ef:
        cb:62:93:8b:58:45:fa:f2:7f:81:ed:34:9a:4b:8c:a7:32:69:
        fe:ca:83:f4:63:34:97:a7:af:c4:2d:20:53:b0:9e:c1:67:4d:
        a0:79:94:73:f7:35:e5:3d:b1:ed:de:f5:2e:23:63:3c:46:2d:
        20:6d:2b:b6
-----BEGIN CERTIFICATE-----
MIID8zCCAtugAwIBAgIBAjANBgkqhkiG9w0BAQUFADCBkjEXMBUGA1UEAxMOUHly
byBDZXJ0IEF1dGgxCzAJBgNVBAYTAk5MMRIwEAYDVQQIEwlTb21lU3RhdGUxETAP
BgNVBAcTCFNvbWVDaXR5MR0wGwYDVQQKExRweXJvLnNvdXJjZWZvcmdlLm5ldDEk
MCIGCSqGSIb3DQEJARYVY2VydGF1dGhAcHlyby5pbnZhbGlkMB4XDTA1MDIwMTIx
MzAyNloXDTA2MDIwMTIxMzAyNlowgYYxCzAJBgNVBAYTAk5MMRIwEAYDVQQIEwlT
b21lU3RhdGUxHTAbBgNVBAoTFHB5cm8uc291cmNlZm9yZ2UubmV0MQ8wDQYDVQQL
EwZjbGllbnQxDzANBgNVBAMTBmNsaWVudDEiMCAGCSqGSIb3DQEJARYTY2xpZW50
QHB5cm8uaW52YWxpZDBcMA0GCSqGSIb3DQEBAQUAA0sAMEgCQQDeqAMll/nGSxE/
vT2sdAJmVireiREavmqoP5NLs1Q6VVdwY+k9m6/YDaDqmGFjy7b2egj6zOJZ5HGb
Zetk+05jAgMBAAGjggEkMIIBIDAJBgNVHRMEAjAAMB0GA1UdDgQWBBSmLDb5xoCq
YeB8qLrK4u+Lp5cowjCBvwYDVR0jBIG3MIG0gBROxfNigRPi20ba/XZFYMtSfT/v
K6GBmKSBlTCBkjEXMBUGA1UEAxMOUHlybyBDZXJ0IEF1dGgxCzAJBgNVBAYTAk5M
MRIwEAYDVQQIEwlTb21lU3RhdGUxETAPBgNVBAcTCFNvbWVDaXR5MR0wGwYDVQQK
ExRweXJvLnNvdXJjZWZvcmdlLm5ldDEkMCIGCSqGSIb3DQEJARYVY2VydGF1dGhA
cHlyby5pbnZhbGlkggEAMDIGCWCGSAGG+EIBBAQlFiNodHRwczovL3d3dy5jZXJ0
LmludmFsaWQvY2EtY3JsLnBlbTANBgkqhkiG9w0BAQUFAAOCAQEABrgpe5/8iAzx
gUbTiuuq7IRygt9lC3V+G/Azxthcz27+yjMstSGGVciQFEJSMQx8Lkp/e1ORIKSA
UZ+S832vEcE4bjU1OD/rQ3kf7XAPC4ZOpqM/TqJgyyCcvbUu3HXBJoOd1w42TH1y
uMjIPJwYiarOcANjn29K0klpN2bGkisRjzF0m81mzUbAlv1WuaUh0cjEOQ7aWoXW
6sAvK2aclPrM9N2CY/EqQZ+DK1e3Hssbd6XDYUqWsHEpkCK+z0XCQz7FL1Hvy2KT
i1hF+vJ/ge00mkuMpzJp/sqD9GM0l6evxC0gU7CewWdNoHmUc/c15T2x7d71LiNj
PEYtIG0rtg==
-----END CERTIFICATE-----
