Certificate:
    Data:
        Version: 3 (0x2)
        Serial Number: 2 (0x2)
        Signature Algorithm: sha1WithRSAEncryption
        Issuer: CN=Pyro Cert Auth, C=NL, ST=SomeState, L=SomeCity, O=pyro.sourceforge.net/emailAddress=pyro@server.invalid
        Validity
            Not Before: Feb 15 21:38:32 2007 GMT
            Not After : Jan 15 21:38:32 2009 GMT
        Subject: C=NL, ST=SomeState, O=pyro.sourceforge.net, CN=pyro.sourceforge.net/emailAddress=pyro@client.invalid
        Subject Public Key Info:
            Public Key Algorithm: rsaEncryption
            RSA Public Key: (1024 bit)
                Modulus (1024 bit):
                    00:bd:3e:2b:f6:cc:bb:c4:19:c5:02:3b:14:61:29:
                    f7:48:9c:07:52:85:16:8c:c1:62:46:db:68:0f:eb:
                    e8:32:55:f1:74:40:9f:8c:15:f9:30:1b:40:a0:2d:
                    ff:89:ba:79:c6:d0:ed:42:37:27:2f:e4:ad:c8:e5:
                    73:02:bd:9f:92:fe:ab:f0:71:b9:0e:08:32:3e:9d:
                    ab:18:28:7a:00:fa:35:1d:73:a7:28:d7:8a:1b:f4:
                    a6:93:90:87:91:d5:49:06:44:37:af:bf:5e:7e:35:
                    3f:e0:93:1e:33:bf:35:e4:bc:f1:fb:11:d0:b3:d2:
                    0c:85:7d:13:b8:b7:46:b3:1f
                Exponent: 65537 (0x10001)
        X509v3 extensions:
            X509v3 Basic Constraints: 
                CA:FALSE
            X509v3 Subject Key Identifier: 
                84:A1:7A:B2:BE:32:DF:88:C5:9B:A0:94:2F:F3:31:CE:24:AC:88:6C
            X509v3 Authority Key Identifier: 
                keyid:F6:A3:84:E0:47:97:5E:0A:4B:58:5C:C7:98:F8:85:06:5F:58:7E:F4
                DirName:/CN=Pyro Cert Auth/C=NL/ST=SomeState/L=SomeCity/O=pyro.sourceforge.net/emailAddress=pyro@server.invalid
                serial:99:CE:9A:9A:E3:EA:BC:A7

            Netscape CA Revocation Url: 
                https://foo.invalid
    Signature Algorithm: sha1WithRSAEncryption
        b2:b2:05:e1:a4:e7:cd:1a:ce:4d:dc:79:7b:29:7d:e0:af:99:
        e7:1f:44:5c:c2:2d:7d:c1:11:33:f7:f3:8c:dc:25:e8:82:8e:
        d9:57:db:45:84:58:8c:f4:03:79:51:dc:1c:7b:2a:fc:e6:f2:
        26:c0:97:c7:dc:02:aa:03:13:58:a9:ca:0c:c4:88:e5:f0:dc:
        32:9a:4b:7f:2e:f3:ad:1e:71:fe:57:dd:91:8f:2d:a5:96:3d:
        0f:ee:d8:a3:41:1a:b9:b7:ef:f9:7b:63:35:cd:76:1f:f5:c4:
        74:2c:30:44:14:49:e9:06:07:2c:3e:a2:ed:14:9a:dd:18:02:
        ae:ae:a2:0f:38:cd:29:e5:2b:f7:66:ee:89:88:29:12:0b:90:
        9b:84:60:ab:fc:13:88:d6:39:2d:88:b3:14:6a:0a:d6:ce:93:
        d2:94:93:da:88:2e:d2:ad:0f:9e:9d:36:1f:86:91:f2:19:ac:
        4a:c5:ed:c3:13:3f:04:0c:ec:a9:fe:fc:ac:53:b1:9a:64:1c:
        7a:79:88:b4:2a:19:96:fd:7d:07:b3:84:f0:28:1c:67:e9:f8:
        87:12:32:2a:e6:8e:fe:b8:0b:0c:62:c2:6d:33:1f:27:b0:fe:
        e7:7c:d0:bb:5a:7d:2a:aa:11:9d:dd:38:b3:e4:5a:3a:0e:b9:
        31:a3:89:20
-----BEGIN CERTIFICATE-----
MIIEKDCCAxCgAwIBAgIBAjANBgkqhkiG9w0BAQUFADCBkDEXMBUGA1UEAxMOUHly
byBDZXJ0IEF1dGgxCzAJBgNVBAYTAk5MMRIwEAYDVQQIEwlTb21lU3RhdGUxETAP
BgNVBAcTCFNvbWVDaXR5MR0wGwYDVQQKExRweXJvLnNvdXJjZWZvcmdlLm5ldDEi
MCAGCSqGSIb3DQEJARYTcHlyb0BzZXJ2ZXIuaW52YWxpZDAeFw0wNzAyMTUyMTM4
MzJaFw0wOTAxMTUyMTM4MzJaMIGDMQswCQYDVQQGEwJOTDESMBAGA1UECBMJU29t
ZVN0YXRlMR0wGwYDVQQKExRweXJvLnNvdXJjZWZvcmdlLm5ldDEdMBsGA1UEAxMU
cHlyby5zb3VyY2Vmb3JnZS5uZXQxIjAgBgkqhkiG9w0BCQEWE3B5cm9AY2xpZW50
LmludmFsaWQwgZ8wDQYJKoZIhvcNAQEBBQADgY0AMIGJAoGBAL0+K/bMu8QZxQI7
FGEp90icB1KFFozBYkbbaA/r6DJV8XRAn4wV+TAbQKAt/4m6ecbQ7UI3Jy/krcjl
cwK9n5L+q/BxuQ4IMj6dqxgoegD6NR1zpyjXihv0ppOQh5HVSQZEN6+/Xn41P+CT
HjO/NeS88fsR0LPSDIV9E7i3RrMfAgMBAAGjggEaMIIBFjAJBgNVHRMEAjAAMB0G
A1UdDgQWBBSEoXqyvjLfiMWboJQv8zHOJKyIbDCBxQYDVR0jBIG9MIG6gBT2o4Tg
R5deCktYXMeY+IUGX1h+9KGBlqSBkzCBkDEXMBUGA1UEAxMOUHlybyBDZXJ0IEF1
dGgxCzAJBgNVBAYTAk5MMRIwEAYDVQQIEwlTb21lU3RhdGUxETAPBgNVBAcTCFNv
bWVDaXR5MR0wGwYDVQQKExRweXJvLnNvdXJjZWZvcmdlLm5ldDEiMCAGCSqGSIb3
DQEJARYTcHlyb0BzZXJ2ZXIuaW52YWxpZIIJAJnOmprj6rynMCIGCWCGSAGG+EIB
BAQVFhNodHRwczovL2Zvby5pbnZhbGlkMA0GCSqGSIb3DQEBBQUAA4IBAQCysgXh
pOfNGs5N3Hl7KX3gr5nnH0Rcwi19wREz9/OM3CXogo7ZV9tFhFiM9AN5Udwceyr8
5vImwJfH3AKqAxNYqcoMxIjl8Nwymkt/LvOtHnH+V92Rjy2llj0P7tijQRq5t+/5
e2M1zXYf9cR0LDBEFEnpBgcsPqLtFJrdGAKurqIPOM0p5Sv3Zu6JiCkSC5CbhGCr
/BOI1jktiLMUagrWzpPSlJPaiC7SrQ+enTYfhpHyGaxKxe3DEz8EDOyp/vysU7Ga
ZBx6eYi0KhmW/X0Hs4TwKBxn6fiHEjIq5o7+uAsMYsJtMx8nsP7nfNC7Wn0qqhGd
3Tiz5Fo6Drkxo4kg
-----END CERTIFICATE-----
-----BEGIN RSA PRIVATE KEY-----
MIICXQIBAAKBgQC9Piv2zLvEGcUCOxRhKfdInAdShRaMwWJG22gP6+gyVfF0QJ+M
FfkwG0CgLf+JunnG0O1CNycv5K3I5XMCvZ+S/qvwcbkOCDI+nasYKHoA+jUdc6co
14ob9KaTkIeR1UkGRDevv15+NT/gkx4zvzXkvPH7EdCz0gyFfRO4t0azHwIDAQAB
AoGBALf8yzee42sL9tttXyn8aBwi/od/N2ZP2eG0DV91Z4IQxrjU34mOD4By7okN
T6WzNBRVKmc3QhUxSrjIQ+JFQ+8xmzc/YkqOK/VD1HloqZT8MNb6fABb176/tqJE
dfXvCUifwCZHhMmJb8bqT4jXENs8m0cZTb2NlKinyIR4FwzZAkEA+uOxf0CTJFwK
st2pFTD+8EL/TcRbVIyJpdmhyWmlreUCAydYPZs8iVMcSwtyzsT6SAzE3vVMsLlX
crg+idQ7ewJBAMEZAvi3UXHjBZCpMlqybnmqG05eeWmU7SnqeqeYulmC7kCy+hM3
txwn6CXVAQc5GIbHx1uzycsM8sbRZ9yzM60CQC8p3pQtb3vGUbyOLtrs+v/vmE7m
OsUKJlYnM2LJmXu3MUmme9AY/qhSF1+EJ3D3VpV00Q2Yz3HpZacLO7ZtT0ECQEzM
9+OYdepIEySQRxjPsyTsxWOMK9oUg6eSPSp/kk6bxssw5EnUdR3buXeimoAW82xX
9TDB91atVbpB+39KPxkCQQC0O0a33Y7GHEBIaysOMIWNAiaqVGlNXy38mGSy5RaF
fkcA1WIUm4FV03znzsW06mz+JvdtBHAVxXDn46Ty9/2H
-----END RSA PRIVATE KEY-----
