Certificate:
    Data:
        Version: 3 (0x2)
        Serial Number: 1 (0x1)
        Signature Algorithm: sha1WithRSAEncryption
        Issuer: CN=Pyro Cert Auth, C=NL, ST=SomeState, L=SomeCity, O=pyro.sourceforge.net/emailAddress=pyro@server.invalid
        Validity
            Not Before: Feb 15 21:30:46 2007 GMT
            Not After : Jan 15 21:30:46 2009 GMT
        Subject: C=NL, ST=SomeState, O=pyro.sourceforge.net, CN=pyro.sourceforge.net/emailAddress=pyro@server.invalid
        Subject Public Key Info:
            Public Key Algorithm: rsaEncryption
            RSA Public Key: (1024 bit)
                Modulus (1024 bit):
                    00:cd:6d:ce:0e:62:16:53:78:0c:fe:45:e0:8a:45:
                    6b:e5:d7:65:af:61:87:1a:7d:5f:f4:c9:e3:d7:07:
                    7b:68:93:cc:18:e2:2b:45:b5:73:44:59:71:6f:f4:
                    f4:f1:da:61:73:6d:47:5b:95:bb:e4:9c:d8:61:7e:
                    f2:92:6f:3b:4a:84:86:b3:40:8b:c1:88:81:be:a9:
                    73:2e:c9:8a:b2:39:09:2a:9d:00:f9:a4:8c:28:9e:
                    ac:95:07:65:32:84:6f:c7:22:c4:f7:3d:d0:7e:9a:
                    d3:a7:e4:8e:9e:c8:96:d5:f4:d4:b6:a1:84:1f:30:
                    13:3d:20:a7:30:3d:bd:18:3f
                Exponent: 65537 (0x10001)
        X509v3 extensions:
            X509v3 Basic Constraints: 
                CA:FALSE
            X509v3 Subject Key Identifier: 
                F3:D2:18:01:A7:90:04:79:91:03:5C:EC:86:E9:B1:23:AF:8B:48:AF
            X509v3 Authority Key Identifier: 
                keyid:F6:A3:84:E0:47:97:5E:0A:4B:58:5C:C7:98:F8:85:06:5F:58:7E:F4
                DirName:/CN=Pyro Cert Auth/C=NL/ST=SomeState/L=SomeCity/O=pyro.sourceforge.net/emailAddress=pyro@server.invalid
                serial:99:CE:9A:9A:E3:EA:BC:A7

            Netscape CA Revocation Url: 
                https://foo.invalid
    Signature Algorithm: sha1WithRSAEncryption
        7c:71:5d:22:27:3b:a3:d3:0c:a7:f9:be:b8:76:96:21:2b:a4:
        59:13:c0:17:9a:ed:82:a4:5b:41:64:f2:3c:79:ea:c8:f3:83:
        e8:51:07:f9:00:d4:57:80:54:e7:b9:3c:62:0a:9e:73:af:f6:
        0b:dc:52:26:88:be:2e:c1:17:e9:ec:4a:5d:d0:8e:14:92:e1:
        15:0d:5e:6e:c7:2c:13:2d:a7:e5:be:d9:f9:a1:32:d3:ef:50:
        2b:f6:98:ee:9d:9c:a2:3b:6b:21:bf:df:8f:ac:d5:25:9a:9b:
        53:91:8b:ea:4b:3b:39:6a:a0:75:da:d0:ea:b2:d2:95:55:5e:
        7f:f3:09:82:c5:46:9d:80:ce:1c:8c:7d:54:44:30:51:cc:58:
        2c:0d:7c:f1:37:ab:23:af:35:97:f5:ab:a2:d4:b5:e2:88:97:
        d9:91:9d:19:a0:25:61:08:38:3c:b1:76:11:70:95:11:88:c8:
        34:20:bd:28:f4:c3:4f:ae:58:d4:c2:9a:2b:bb:5b:97:c7:07:
        2c:67:0b:b3:f8:ed:c6:bf:cd:25:1e:d4:d1:ae:cd:7d:ee:9e:
        cf:47:ac:e1:fc:de:81:30:3a:95:b5:c4:8a:a5:0d:a4:bf:5f:
        82:1e:eb:f9:24:9f:90:62:91:3f:da:28:c4:62:34:5c:ea:bb:
        d9:57:51:be
-----BEGIN CERTIFICATE-----
MIIEKDCCAxCgAwIBAgIBATANBgkqhkiG9w0BAQUFADCBkDEXMBUGA1UEAxMOUHly
byBDZXJ0IEF1dGgxCzAJBgNVBAYTAk5MMRIwEAYDVQQIEwlTb21lU3RhdGUxETAP
BgNVBAcTCFNvbWVDaXR5MR0wGwYDVQQKExRweXJvLnNvdXJjZWZvcmdlLm5ldDEi
MCAGCSqGSIb3DQEJARYTcHlyb0BzZXJ2ZXIuaW52YWxpZDAeFw0wNzAyMTUyMTMw
NDZaFw0wOTAxMTUyMTMwNDZaMIGDMQswCQYDVQQGEwJOTDESMBAGA1UECBMJU29t
ZVN0YXRlMR0wGwYDVQQKExRweXJvLnNvdXJjZWZvcmdlLm5ldDEdMBsGA1UEAxMU
cHlyby5zb3VyY2Vmb3JnZS5uZXQxIjAgBgkqhkiG9w0BCQEWE3B5cm9Ac2VydmVy
LmludmFsaWQwgZ8wDQYJKoZIhvcNAQEBBQADgY0AMIGJAoGBAM1tzg5iFlN4DP5F
4IpFa+XXZa9hhxp9X/TJ49cHe2iTzBjiK0W1c0RZcW/09PHaYXNtR1uVu+Sc2GF+
8pJvO0qEhrNAi8GIgb6pcy7JirI5CSqdAPmkjCierJUHZTKEb8cixPc90H6a06fk
jp7IltX01LahhB8wEz0gpzA9vRg/AgMBAAGjggEaMIIBFjAJBgNVHRMEAjAAMB0G
A1UdDgQWBBTz0hgBp5AEeZEDXOyG6bEjr4tIrzCBxQYDVR0jBIG9MIG6gBT2o4Tg
R5deCktYXMeY+IUGX1h+9KGBlqSBkzCBkDEXMBUGA1UEAxMOUHlybyBDZXJ0IEF1
dGgxCzAJBgNVBAYTAk5MMRIwEAYDVQQIEwlTb21lU3RhdGUxETAPBgNVBAcTCFNv
bWVDaXR5MR0wGwYDVQQKExRweXJvLnNvdXJjZWZvcmdlLm5ldDEiMCAGCSqGSIb3
DQEJARYTcHlyb0BzZXJ2ZXIuaW52YWxpZIIJAJnOmprj6rynMCIGCWCGSAGG+EIB
BAQVFhNodHRwczovL2Zvby5pbnZhbGlkMA0GCSqGSIb3DQEBBQUAA4IBAQB8cV0i
Jzuj0wyn+b64dpYhK6RZE8AXmu2CpFtBZPI8eerI84PoUQf5ANRXgFTnuTxiCp5z
r/YL3FImiL4uwRfp7Epd0I4UkuEVDV5uxywTLaflvtn5oTLT71Ar9pjunZyiO2sh
v9+PrNUlmptTkYvqSzs5aqB12tDqstKVVV5/8wmCxUadgM4cjH1URDBRzFgsDXzx
N6sjrzWX9aui1LXiiJfZkZ0ZoCVhCDg8sXYRcJURiMg0IL0o9MNPrljUwporu1uX
xwcsZwuz+O3Gv80lHtTRrs197p7PR6zh/N6BMDqVtcSKpQ2kv1+CHuv5JJ+QYpE/
2ijEYjRc6rvZV1G+
-----END CERTIFICATE-----
-----BEGIN RSA PRIVATE KEY-----
MIICXAIBAAKBgQDNbc4OYhZTeAz+ReCKRWvl12WvYYcafV/0yePXB3tok8wY4itF
tXNEWXFv9PTx2mFzbUdblbvknNhhfvKSbztKhIazQIvBiIG+qXMuyYqyOQkqnQD5
pIwonqyVB2UyhG/HIsT3PdB+mtOn5I6eyJbV9NS2oYQfMBM9IKcwPb0YPwIDAQAB
AoGBAITdNv9ge1Yi+Cxg33gurDlslczXxDzix/QXu6+wnCWoKcISTbB5SgLz4oVp
ph7iglLYY+WdM3gJ5X0xUQxaurovnY7W8CHctq4TTrQrCNDGzYqT+Zl3bfrOgH0U
/LrXcUk7ZH/rc4N1U7L4eOIeGY1ccRTuSBmcfaLBjrmKTA/JAkEA7ltMUyj8BIsL
0NPNnZa1S4amAbsIxG9oq1tXz7qVvoZoPslnXS6BqE2iNxVDHbgTw5iWGdwZLPkC
x/NhbkCwiwJBANyijF0bNa125Wv4wznZqyqIKzMMBk9MZQooQ1a2CMcqxO/3gfA6
+8O6VEmx5aqFl+WqNVierk7FXTrgQKmh2Z0CQEqiadbMSYV+qHd+Kq8Cpsf8ZHS8
RPWFUQf+9RMFgKgE3BV06RnDWzQBAx8uWDKxFfc0CyQTyApN+nHzonlsZhsCQH6j
Dc2jAHw/8g63Cdb6iLQw1BrInBaH0raxxXTPptoqQj854Orx7++30wk5gokNhNHd
kCD9cy7jOU/Bx1uV+kECQEp3q3H/ptHWLVhHxubewWUx7IDq4RIv1bGAt8zNpP4g
IUnfrT91Lt/RoSJbyCtNOdKnzLuVtUak5CAskptdHPk=
-----END RSA PRIVATE KEY-----
