-----BEGIN RSA PRIVATE KEY-----
MIIBPAIBAAJBAN6oAyWX+cZLET+9Pax0AmZWKt6JERq+aqg/k0uzVDpVV3Bj6T2b
r9gNoOqYYWPLtvZ6CPrM4lnkcZtl62T7TmMCAwEAAQJBALRuCj7IrQvXgR7Zx8Sc
LeWoJg03nbjCXcQB4OcTZ0nso1WUd41AkXRA8LRS8KzD64E8dIXT1unOafcCeoRv
bEECIQD18xpJbYOFWNcf2+KR3y+K+wGpNInCiKQ+OdOZRk/PCQIhAOfBPIbVyCd3
PPV0HPYtw3JkhAzaaNrDNR1ulZxNA2ELAiEA3zreAgVXGUHQR4dQ9msnALLgCA66
domE4UGlD3ok19kCIBpKvt4hJLrteRnzmVGIcZLpul1m7dxbpwv2vrxjtE1vAiEA
58Mm/bz5fEbNWUr9Smdkm0pmlbjaYHjUt9/rSRZH0vo=
-----END RSA PRIVATE KEY-----
Certificate:
    Data:
        Version: 3 (0x2)
        Serial Number: 1 (0x1)
        Signature Algorithm: sha1WithRSAEncryption
        Issuer: CN=Pyro Cert Auth, C=NL, ST=SomeState, L=SomeCity, O=pyro.sourceforge.net/emailAddress=certauth@pyro.invalid
        Validity
            Not Before: Feb  1 21:29:27 2005 GMT
            Not After : Feb  1 21:29:27 2006 GMT
        Subject: C=NL, ST=SomeState, O=pyro.sourceforge.net, OU=server, CN=server/emailAddress=server@pyro.invalid
        Subject Public Key Info:
            Public Key Algorithm: rsaEncryption
            RSA Public Key: (512 bit)
                Modulus (512 bit):
                    00:de:a8:03:25:97:f9:c6:4b:11:3f:bd:3d:ac:74:
                    02:66:56:2a:de:89:11:1a:be:6a:a8:3f:93:4b:b3:
                    54:3a:55:57:70:63:e9:3d:9b:af:d8:0d:a0:ea:98:
                    61:63:cb:b6:f6:7a:08:fa:cc:e2:59:e4:71:9b:65:
                    eb:64:fb:4e:63
                Exponent: 65537 (0x10001)
        X509v3 extensions:
            X509v3 Basic Constraints: 
                CA:FALSE
            X509v3 Subject Key Identifier: 
                A6:2C:36:F9:C6:80:AA:61:E0:7C:A8:BA:CA:E2:EF:8B:A7:97:28:C2
            X509v3 Authority Key Identifier: 
                keyid:4E:C5:F3:62:81:13:E2:DB:46:DA:FD:76:45:60:CB:52:7D:3F:EF:2B
                DirName:/CN=Pyro Cert Auth/C=NL/ST=SomeState/L=SomeCity/O=pyro.sourceforge.net/emailAddress=certauth@pyro.invalid
                serial:00

            Netscape CA Revocation Url: 
                https://www.cert.invalid/ca-crl.pem
    Signature Algorithm: sha1WithRSAEncryption
        9c:6b:1c:3f:0c:ff:61:28:fa:9a:ff:67:89:c7:ef:73:3c:dd:
        c3:c3:01:cc:d7:14:e5:c9:cc:ad:6d:47:01:ad:bb:fd:9a:0d:
        f8:6a:5e:0b:40:ac:02:93:45:b3:e8:21:88:ac:54:2e:06:77:
        05:8d:d4:f9:d9:39:80:59:7a:84:41:30:32:44:59:58:78:7c:
        74:ec:fa:4e:ec:44:7f:31:e7:7e:ba:e7:49:d1:d6:ad:14:13:
        64:c4:21:12:fb:3f:fb:a9:fc:9e:7a:a0:39:af:fc:1c:db:8d:
        fb:e4:b9:57:5f:cf:03:e5:6f:6f:4b:b1:27:c4:25:38:2e:8e:
        f9:0a:66:50:56:56:16:cf:4f:66:12:70:5b:43:fd:fd:dc:fe:
        f1:dc:4d:07:0d:98:7a:c3:1f:fc:08:8f:1e:32:36:8b:00:b8:
        e8:64:e7:42:0a:9b:7d:55:49:50:ca:08:18:ba:59:f6:1d:2a:
        7b:35:33:3f:1f:3f:02:9b:5a:15:0a:36:c2:7d:17:b7:21:34:
        17:d0:18:33:de:34:76:26:28:e9:54:ed:ab:1d:01:b2:fa:3b:
        d6:95:99:c5:20:f0:d7:b5:dc:74:60:9a:7b:04:6d:1d:1b:86:
        95:92:68:a8:e9:db:65:55:c3:ef:84:94:1d:75:5c:d8:ba:f2:
        58:65:14:0d
-----BEGIN CERTIFICATE-----
MIID8zCCAtugAwIBAgIBATANBgkqhkiG9w0BAQUFADCBkjEXMBUGA1UEAxMOUHly
byBDZXJ0IEF1dGgxCzAJBgNVBAYTAk5MMRIwEAYDVQQIEwlTb21lU3RhdGUxETAP
BgNVBAcTCFNvbWVDaXR5MR0wGwYDVQQKExRweXJvLnNvdXJjZWZvcmdlLm5ldDEk
MCIGCSqGSIb3DQEJARYVY2VydGF1dGhAcHlyby5pbnZhbGlkMB4XDTA1MDIwMTIx
MjkyN1oXDTA2MDIwMTIxMjkyN1owgYYxCzAJBgNVBAYTAk5MMRIwEAYDVQQIEwlT
b21lU3RhdGUxHTAbBgNVBAoTFHB5cm8uc291cmNlZm9yZ2UubmV0MQ8wDQYDVQQL
EwZzZXJ2ZXIxDzANBgNVBAMTBnNlcnZlcjEiMCAGCSqGSIb3DQEJARYTc2VydmVy
QHB5cm8uaW52YWxpZDBcMA0GCSqGSIb3DQEBAQUAA0sAMEgCQQDeqAMll/nGSxE/
vT2sdAJmVireiREavmqoP5NLs1Q6VVdwY+k9m6/YDaDqmGFjy7b2egj6zOJZ5HGb
Zetk+05jAgMBAAGjggEkMIIBIDAJBgNVHRMEAjAAMB0GA1UdDgQWBBSmLDb5xoCq
YeB8qLrK4u+Lp5cowjCBvwYDVR0jBIG3MIG0gBROxfNigRPi20ba/XZFYMtSfT/v
K6GBmKSBlTCBkjEXMBUGA1UEAxMOUHlybyBDZXJ0IEF1dGgxCzAJBgNVBAYTAk5M
MRIwEAYDVQQIEwlTb21lU3RhdGUxETAPBgNVBAcTCFNvbWVDaXR5MR0wGwYDVQQK
ExRweXJvLnNvdXJjZWZvcmdlLm5ldDEkMCIGCSqGSIb3DQEJARYVY2VydGF1dGhA
cHlyby5pbnZhbGlkggEAMDIGCWCGSAGG+EIBBAQlFiNodHRwczovL3d3dy5jZXJ0
LmludmFsaWQvY2EtY3JsLnBlbTANBgkqhkiG9w0BAQUFAAOCAQEAnGscPwz/YSj6
mv9nicfvczzdw8MBzNcU5cnMrW1HAa27/ZoN+GpeC0CsApNFs+ghiKxULgZ3BY3U
+dk5gFl6hEEwMkRZWHh8dOz6TuxEfzHnfrrnSdHWrRQTZMQhEvs/+6n8nnqgOa/8
HNuN++S5V1/PA+Vvb0uxJ8QlOC6O+QpmUFZWFs9PZhJwW0P9/dz+8dxNBw2YesMf
/AiPHjI2iwC46GTnQgqbfVVJUMoIGLpZ9h0qezUzPx8/AptaFQo2wn0XtyE0F9AY
M940diYo6VTtqx0Bsvo71pWZxSDw17XcdGCaewRtHRuGlZJoqOnbZVXD74SUHXVc
2LryWGUUDQ==
-----END CERTIFICATE-----
